; Function Attrs: mustprogress nofree nounwind willreturn memory(write, argmem: readwrite) uwtable
define internal { double, double } @_ZL14cass_s_inverse5PJ_XYP8PJconsts(double %0, double %1, ptr noundef readonly captures(none) %2) #2 {
  %4 = getelementptr inbounds nuw i8, ptr %2, i64 448
  %5 = load double, ptr %4, align 8, !tbaa !49
  %6 = fadd double %1, %5
  %7 = tail call double @sin(double noundef %6) #8, !tbaa !50
  %8 = tail call double @cos(double noundef %0) #8, !tbaa !50
  %9 = fmul double %7, %8
  %10 = tail call double @asin(double noundef %9) #8, !tbaa !50
  %11 = tail call double @tan(double noundef %0) #8, !tbaa !50
  %12 = tail call double @cos(double noundef %6) #8, !tbaa !50
  %13 = tail call double @atan2(double noundef %11, double noundef %12) #8, !tbaa !50
  %.fca.0.insert = insertvalue { double, double } poison, double %13, 0
  %.fca.1.insert = insertvalue { double, double } %.fca.0.insert, double %10, 1
  ret { double, double } %.fca.1.insert
}